; Function Attrs: nounwind uwtable
define noundef i64 @ZSTD_decompressBegin_usingDDict(ptr noundef %0, ptr noundef %1) local_unnamed_addr #0 {
  %.not = icmp eq ptr %1, null
  br i1 %.not, label %12, label %3

3:                                                ; preds = %2
  %4 = tail call ptr @ZSTD_DDict_dictContent(ptr noundef nonnull %1) #17
  %5 = tail call i64 @ZSTD_DDict_dictSize(ptr noundef nonnull %1) #17
  %6 = getelementptr inbounds nuw i8, ptr %4, i64 %5
  %7 = getelementptr inbounds nuw i8, ptr %0, i64 29912
  %8 = load ptr, ptr %7, align 8, !tbaa !21
  %9 = icmp ne ptr %8, %6
  %10 = zext i1 %9 to i32
  %11 = getelementptr inbounds nuw i8, ptr %0, i64 30204
  store i32 %10, ptr %11, align 4, !tbaa !22
  br label %12

12:                                               ; preds = %2, %3
  %.not.i = icmp eq ptr @ZSTD_trace_decompress_begin, null
  br i1 %.not.i, label %ZSTD_decompressBegin.exit, label %13

13:                                               ; preds = %12
  %14 = tail call i64 @ZSTD_trace_decompress_begin(ptr noundef %0) #17
  br label %ZSTD_decompressBegin.exit

ZSTD_decompressBegin.exit:                        ; preds = %12, %13
  %15 = phi i64 [ %14, %13 ], [ 0, %12 ]
  %16 = getelementptr inbounds nuw i8, ptr %0, i64 95984
  store i64 %15, ptr %16, align 8, !tbaa !86
  %17 = getelementptr inbounds nuw i8, ptr %0, i64 30104
  %18 = load i32, ptr %17, align 8, !tbaa !34
  %19 = icmp eq i32 %18, 0
  %20 = select i1 %19, i64 5, i64 1
  %21 = getelementptr inbounds nuw i8, ptr %0, i64 29920
  store i64 %20, ptr %21, align 8, !tbaa !87
  %22 = getelementptr inbounds nuw i8, ptr %0, i64 29996
  store i32 0, ptr %22, align 4, !tbaa !88
  %23 = getelementptr inbounds nuw i8, ptr %0, i64 29976
  %24 = getelementptr inbounds nuw i8, ptr %0, i64 29888
  %25 = getelementptr inbounds nuw i8, ptr %0, i64 32
  %26 = getelementptr inbounds nuw i8, ptr %0, i64 10296
  tail call void @llvm.memset.p0.i64(ptr noundef nonnull align 8 dereferenceable(32) %24, i8 0, i64 32, i1 false)
  tail call void @llvm.memset.p0.i64(ptr noundef nonnull align 8 dereferenceable(16) %23, i8 0, i64 16, i1 false)
  store i32 201326604, ptr %26, align 8, !tbaa !47
  %27 = getelementptr inbounds nuw i8, ptr %0, i64 30004
  store i32 0, ptr %27, align 4, !tbaa !89
  %28 = getelementptr inbounds nuw i8, ptr %0, i64 30000
  store i32 0, ptr %28, align 8, !tbaa !90
  %29 = getelementptr inbounds nuw i8, ptr %0, i64 30200
  store i32 0, ptr %29, align 8, !tbaa !91
  %30 = getelementptr inbounds nuw i8, ptr %0, i64 29992
  store i32 3, ptr %30, align 8, !tbaa !92
  %31 = getelementptr inbounds nuw i8, ptr %0, i64 30176
  store i32 1, ptr %31, align 8, !tbaa !28
  %32 = getelementptr inbounds nuw i8, ptr %0, i64 26684
  tail call void @llvm.memcpy.p0.p0.i64(ptr noundef nonnull align 4 dereferenceable(12) %32, ptr noundef nonnull align 4 dereferenceable(12) @repStartValue, i64 12, i1 false)
  store ptr %25, ptr %0, align 8, !tbaa !93
  %33 = getelementptr inbounds nuw i8, ptr %0, i64 6192
  %34 = getelementptr inbounds nuw i8, ptr %0, i64 8
  store ptr %33, ptr %34, align 8, !tbaa !94
  %35 = getelementptr inbounds nuw i8, ptr %0, i64 4136
  %36 = getelementptr inbounds nuw i8, ptr %0, i64 16
  store ptr %35, ptr %36, align 8, !tbaa !95
  %37 = getelementptr inbounds nuw i8, ptr %0, i64 24
  store ptr %26, ptr %37, align 8, !tbaa !96
  br i1 %.not, label %39, label %38

38:                                               ; preds = %ZSTD_decompressBegin.exit
  tail call void @ZSTD_copyDDictParameters(ptr noundef nonnull %0, ptr noundef nonnull %1) #17
  br label %39

39:                                               ; preds = %ZSTD_decompressBegin.exit, %38
  ret i64 0
}